target datalayout = "e-m:e-p270:32:32-p271:32:32-p272:64:64-i64:64-i128:128-f80:128-n8:16:32:64-S128"
target triple = "x86_64-pc-linux-gnu"

%struct.LodePNGColorMode = type { i32, i32, ptr, i64, i32, i32, i32, i32 }

; Function Attrs: mustprogress nounwind uwtable
define internal void @_ZL12lodepng_freePv(ptr noundef %0) #3 {
  %2 = alloca ptr, align 8
  store ptr %0, ptr %2, align 8, !tbaa !44
  %3 = load ptr, ptr %2, align 8, !tbaa !44
  call void @free(ptr noundef %3) #17
  ret void
}

; Function Attrs: mustprogress uwtable
define void @_Z21lodepng_palette_clearP16LodePNGColorMode(ptr noundef %0) #0 {
  %2 = alloca ptr, align 8
  store ptr %0, ptr %2, align 8, !tbaa !100
  %3 = load ptr, ptr %2, align 8, !tbaa !100
  %4 = getelementptr inbounds nuw %struct.LodePNGColorMode, ptr %3, i32 0, i32 2
  %5 = load ptr, ptr %4, align 8, !tbaa !110
  %6 = icmp ne ptr %5, null
  br i1 %6, label %7, label %11

7:                                                ; preds = %1
  %8 = load ptr, ptr %2, align 8, !tbaa !100
  %9 = getelementptr inbounds nuw %struct.LodePNGColorMode, ptr %8, i32 0, i32 2
  %10 = load ptr, ptr %9, align 8, !tbaa !110
  call void @_ZL12lodepng_freePv(ptr noundef %10)
  br label %11

11:                                               ; preds = %7, %1
  %12 = load ptr, ptr %2, align 8, !tbaa !100
  %13 = getelementptr inbounds nuw %struct.LodePNGColorMode, ptr %12, i32 0, i32 2
  store ptr null, ptr %13, align 8, !tbaa !110
  %14 = load ptr, ptr %2, align 8, !tbaa !100
  %15 = getelementptr inbounds nuw %struct.LodePNGColorMode, ptr %14, i32 0, i32 3
  store i64 0, ptr %15, align 8, !tbaa !111
  ret void
}

; Function Attrs: mustprogress uwtable
define void @_Z26lodepng_color_mode_cleanupP16LodePNGColorMode(ptr noundef %0) #0 {
  %2 = alloca ptr, align 8
  store ptr %0, ptr %2, align 8, !tbaa !100
  %3 = load ptr, ptr %2, align 8, !tbaa !100
  call void @_Z21lodepng_palette_clearP16LodePNGColorMode(ptr noundef %3)
  ret void
}

; Function Attrs: mustprogress nounwind uwtable
define void @_Z23lodepng_color_mode_initP16LodePNGColorMode(ptr noundef %0) #3 {
  %2 = alloca ptr, align 8
  store ptr %0, ptr %2, align 8, !tbaa !100
  %3 = load ptr, ptr %2, align 8, !tbaa !100
  %4 = getelementptr inbounds nuw %struct.LodePNGColorMode, ptr %3, i32 0, i32 4
  store i32 0, ptr %4, align 8, !tbaa !102
  %5 = load ptr, ptr %2, align 8, !tbaa !100
  %6 = getelementptr inbounds nuw %struct.LodePNGColorMode, ptr %5, i32 0, i32 7
  store i32 0, ptr %6, align 4, !tbaa !105
  %7 = load ptr, ptr %2, align 8, !tbaa !100
  %8 = getelementptr inbounds nuw %struct.LodePNGColorMode, ptr %7, i32 0, i32 6
  store i32 0, ptr %8, align 8, !tbaa !106
  %9 = load ptr, ptr %2, align 8, !tbaa !100
  %10 = getelementptr inbounds nuw %struct.LodePNGColorMode, ptr %9, i32 0, i32 5
  store i32 0, ptr %10, align 4, !tbaa !107
  %11 = load ptr, ptr %2, align 8, !tbaa !100
  %12 = getelementptr inbounds nuw %struct.LodePNGColorMode, ptr %11, i32 0, i32 0
  store i32 6, ptr %12, align 8, !tbaa !108
  %13 = load ptr, ptr %2, align 8, !tbaa !100
  %14 = getelementptr inbounds nuw %struct.LodePNGColorMode, ptr %13, i32 0, i32 1
  store i32 8, ptr %14, align 4, !tbaa !109
  %15 = load ptr, ptr %2, align 8, !tbaa !100
  %16 = getelementptr inbounds nuw %struct.LodePNGColorMode, ptr %15, i32 0, i32 2
  store ptr null, ptr %16, align 8, !tbaa !110
  %17 = load ptr, ptr %2, align 8, !tbaa !100
  %18 = getelementptr inbounds nuw %struct.LodePNGColorMode, ptr %17, i32 0, i32 3
  store i64 0, ptr %18, align 8, !tbaa !111
  ret void
}

; Function Attrs: mustprogress uwtable
define internal noundef i32 @_ZL23lodepng_color_stats_addP17LodePNGColorStatsjjjj(ptr noundef %0, i32 noundef %1, i32 noundef %2, i32 noundef %3, i32 noundef %4) #0 {
  %6 = alloca ptr, align 8
  %7 = alloca i32, align 4
  %8 = alloca i32, align 4
  %9 = alloca i32, align 4
  %10 = alloca i32, align 4
  %11 = alloca i32, align 4
  %12 = alloca [8 x i8], align 1
  %13 = alloca %struct.LodePNGColorMode, align 8
  store ptr %0, ptr %6, align 8, !tbaa !217
  store i32 %1, ptr %7, align 4, !tbaa !15
  store i32 %2, ptr %8, align 4, !tbaa !15
  store i32 %3, ptr %9, align 4, !tbaa !15
  store i32 %4, ptr %10, align 4, !tbaa !15
  call void @llvm.lifetime.start.p0(i64 4, ptr %11) #17
  store i32 0, ptr %11, align 4, !tbaa !15
  call void @llvm.lifetime.start.p0(i64 8, ptr %12) #17
  call void @llvm.lifetime.start.p0(i64 40, ptr %13) #17
  call void @_Z23lodepng_color_mode_initP16LodePNGColorMode(ptr noundef %13)
  %14 = load i32, ptr %7, align 4, !tbaa !15
  %15 = lshr i32 %14, 8
  %16 = trunc i32 %15 to i8
  %17 = getelementptr inbounds [8 x i8], ptr %12, i64 0, i64 0
  store i8 %16, ptr %17, align 1, !tbaa !45
  %18 = load i32, ptr %7, align 4, !tbaa !15
  %19 = trunc i32 %18 to i8
  %20 = getelementptr inbounds [8 x i8], ptr %12, i64 0, i64 1
  store i8 %19, ptr %20, align 1, !tbaa !45
  %21 = load i32, ptr %8, align 4, !tbaa !15
  %22 = lshr i32 %21, 8
  %23 = trunc i32 %22 to i8
  %24 = getelementptr inbounds [8 x i8], ptr %12, i64 0, i64 2
  store i8 %23, ptr %24, align 1, !tbaa !45
  %25 = load i32, ptr %8, align 4, !tbaa !15
  %26 = trunc i32 %25 to i8
  %27 = getelementptr inbounds [8 x i8], ptr %12, i64 0, i64 3
  store i8 %26, ptr %27, align 1, !tbaa !45
  %28 = load i32, ptr %9, align 4, !tbaa !15
  %29 = lshr i32 %28, 8
  %30 = trunc i32 %29 to i8
  %31 = getelementptr inbounds [8 x i8], ptr %12, i64 0, i64 4
  store i8 %30, ptr %31, align 1, !tbaa !45
  %32 = load i32, ptr %9, align 4, !tbaa !15
  %33 = trunc i32 %32 to i8
  %34 = getelementptr inbounds [8 x i8], ptr %12, i64 0, i64 5
  store i8 %33, ptr %34, align 1, !tbaa !45
  %35 = load i32, ptr %10, align 4, !tbaa !15
  %36 = lshr i32 %35, 8
  %37 = trunc i32 %36 to i8
  %38 = getelementptr inbounds [8 x i8], ptr %12, i64 0, i64 6
  store i8 %37, ptr %38, align 1, !tbaa !45
  %39 = load i32, ptr %10, align 4, !tbaa !15
  %40 = trunc i32 %39 to i8
  %41 = getelementptr inbounds [8 x i8], ptr %12, i64 0, i64 7
  store i8 %40, ptr %41, align 1, !tbaa !45
  %42 = getelementptr inbounds nuw %struct.LodePNGColorMode, ptr %13, i32 0, i32 1
  store i32 16, ptr %42, align 4, !tbaa !109
  %43 = getelementptr inbounds nuw %struct.LodePNGColorMode, ptr %13, i32 0, i32 0
  store i32 6, ptr %43, align 8, !tbaa !108
  %44 = load ptr, ptr %6, align 8, !tbaa !217
  %45 = getelementptr inbounds [8 x i8], ptr %12, i64 0, i64 0
  %46 = call noundef i32 @_Z27lodepng_compute_color_statsP17LodePNGColorStatsPKhjjPK16LodePNGColorMode(ptr noundef %44, ptr noundef %45, i32 noundef 1, i32 noundef 1, ptr noundef %13)
  store i32 %46, ptr %11, align 4, !tbaa !15
  call void @_Z26lodepng_color_mode_cleanupP16LodePNGColorMode(ptr noundef %13)
  %47 = load i32, ptr %11, align 4, !tbaa !15
  call void @llvm.lifetime.end.p0(i64 40, ptr %13) #17
  call void @llvm.lifetime.end.p0(i64 8, ptr %12) #17
  call void @llvm.lifetime.end.p0(i64 4, ptr %11) #17
  ret i32 %47
}