; Function Attrs: mustprogress nounwind uwtable
define internal fastcc noundef range(i32 0, 84) i32 @_ZL23lodepng_color_stats_addP17LodePNGColorStatsjjjj(ptr noundef nonnull captures(none) %0, i32 noundef %1, i32 noundef %2, i32 noundef %3) unnamed_addr #3 {
_Z26lodepng_color_mode_cleanupP16LodePNGColorMode.exit:
  %4 = alloca [8 x i8], align 1
  %5 = alloca %struct.LodePNGColorMode, align 8
  call void @llvm.lifetime.start.p0(i64 8, ptr nonnull %4) #28
  call void @llvm.lifetime.start.p0(i64 40, ptr nonnull %5) #28
  %6 = getelementptr inbounds nuw i8, ptr %5, i64 24
  call void @llvm.memset.p0.i64(ptr noundef nonnull align 8 dereferenceable(16) %6, i8 0, i64 16, i1 false)
  %7 = getelementptr inbounds nuw i8, ptr %5, i64 4
  %8 = getelementptr inbounds nuw i8, ptr %5, i64 8
  call void @llvm.memset.p0.i64(ptr noundef nonnull align 8 dereferenceable(16) %8, i8 0, i64 16, i1 false)
  %9 = lshr i32 %1, 8
  %10 = trunc i32 %9 to i8
  store i8 %10, ptr %4, align 1, !tbaa !18
  %11 = trunc i32 %1 to i8
  %12 = getelementptr inbounds nuw i8, ptr %4, i64 1
  store i8 %11, ptr %12, align 1, !tbaa !18
  %13 = lshr i32 %2, 8
  %14 = trunc i32 %13 to i8
  %15 = getelementptr inbounds nuw i8, ptr %4, i64 2
  store i8 %14, ptr %15, align 1, !tbaa !18
  %16 = trunc i32 %2 to i8
  %17 = getelementptr inbounds nuw i8, ptr %4, i64 3
  store i8 %16, ptr %17, align 1, !tbaa !18
  %18 = lshr i32 %3, 8
  %19 = trunc i32 %18 to i8
  %20 = getelementptr inbounds nuw i8, ptr %4, i64 4
  store i8 %19, ptr %20, align 1, !tbaa !18
  %21 = trunc i32 %3 to i8
  %22 = getelementptr inbounds nuw i8, ptr %4, i64 5
  store i8 %21, ptr %22, align 1, !tbaa !18
  %23 = getelementptr inbounds nuw i8, ptr %4, i64 6
  store i8 -1, ptr %23, align 1, !tbaa !18
  %24 = getelementptr inbounds nuw i8, ptr %4, i64 7
  store i8 -1, ptr %24, align 1, !tbaa !18
  store i32 16, ptr %7, align 4, !tbaa !186
  store i32 6, ptr %5, align 8, !tbaa !183
  %25 = call noundef i32 @_Z27lodepng_compute_color_statsP17LodePNGColorStatsPKhjjPK16LodePNGColorMode(ptr noundef nonnull %0, ptr noundef nonnull %4, i32 noundef 1, i32 noundef 1, ptr noundef nonnull %5)
  call void @llvm.lifetime.end.p0(i64 40, ptr nonnull %5) #28
  call void @llvm.lifetime.end.p0(i64 8, ptr nonnull %4) #28
  ret i32 %25
}